target datalayout = "e-m:e-p270:32:32-p271:32:32-p272:64:64-i64:64-i128:128-f80:128-n8:16:32:64-S128"
target triple = "x86_64-unknown-linux-gnu"

%struct.CPUArchState = type { [32 x i64], [32 x i64], [512 x i64], i64, i64, i64, i64, i64, i8, i64, i64, i64, [32 x i64], i64, %struct.float_status, i64, i64, i64, i64, i64, i64, i32, i32, i32, i32, i32, i64, i64, i64, i8, i64, i64, i64, i64, i64, i8, i8, i64, i64, i64, i64, i64, i64, i64, i64, i64, i64, i64, i64, i64, i64, i64, [64 x i8], [64 x i8], i64, i64, i64, i64, i64, i64, i64, i64, i64, i64, i64, i64, i64, i64, i64, i64, i64, [64 x i8], i64, i64, i64, i64, i64, i64, i64, i64, i64, i64, i64, i64, i64, i64, i64, i64, i64, i64, i64, i8, i8, i64, i64, i64, [32 x %struct.PMUCTRState], [32 x i64], [32 x i64], i64, i64, i64, i64, %struct.pmp_table_t, i64, i64, [2 x i64], [2 x i64], [2 x i64], [2 x ptr], [2 x ptr], [2 x ptr], i64, i8, ptr, ptr, [4 x ptr], [4 x ptr], i8, i64, i64, i64, i64, i64, i64, i64, i64, [4 x i64], [4 x i64], [4 x i64], i64, i64, i64, i64, ptr, ptr, i8, i64, i64, [8 x i8] }
%struct.float_status = type { i16, i8, i8, i8, i8, i8, i8, i8, i8, i8, i8, i8 }
%struct.PMUCTRState = type { i64, i64, i64, i64, i8, i64 }
%struct.pmp_table_t = type { [16 x %struct.pmp_entry_t], [16 x %struct.pmp_addr_t], i32 }
%struct.pmp_entry_t = type { i64, i8 }
%struct.pmp_addr_t = type { i64, i64 }
%struct.ArchCPU = type { %struct.CPUState, %struct.CPUArchState, ptr, ptr, %struct.RISCVCPUConfig, ptr, i32, ptr, [8 x i8] }
%struct.CPUState = type { %struct.DeviceState, ptr, i32, i32, ptr, i32, i8, i8, ptr, i8, i8, i8, i8, i8, i8, i8, i8, i32, i32, i32, i32, i64, i64, i64, [1 x %struct.__jmp_buf_tag], %struct.QemuMutex, %struct.anon, ptr, i32, ptr, ptr, ptr, ptr, i32, i32, %union.anon, %union.anon.0, %union.anon.1, ptr, ptr, i64, i32, ptr, ptr, ptr, i32, i64, i32, %struct.QemuLockCnt, [1 x i64], ptr, i32, i32, i32, i32, i32, ptr, i8, i8, i64, i8, i8, ptr, [8 x i8], [0 x i8], %struct.CPUNegativeOffsetState }
%struct.DeviceState = type { %struct.Object, ptr, ptr, i8, i8, i64, ptr, i32, i8, ptr, %struct.NamedGPIOListHead, %struct.NamedClockListHead, %struct.BusStateHead, i32, i32, i32, %struct.ResettableState, ptr, %struct.MemReentrancyGuard }
%struct.Object = type { ptr, ptr, ptr, i32, ptr }
%struct.NamedGPIOListHead = type { ptr }
%struct.NamedClockListHead = type { ptr }
%struct.BusStateHead = type { ptr }
%struct.ResettableState = type { i32, i8, i8 }
%struct.MemReentrancyGuard = type { i8 }
%struct.__jmp_buf_tag = type { [8 x i64], i32, %struct.__sigset_t }
%struct.__sigset_t = type { [16 x i64] }
%struct.QemuMutex = type { %union.pthread_mutex_t, i8 }
%union.pthread_mutex_t = type { %struct.__pthread_mutex_s }
%struct.__pthread_mutex_s = type { i32, i32, i32, i32, i32, i16, i16, %struct.__pthread_internal_list }
%struct.__pthread_internal_list = type { ptr, ptr }
%struct.anon = type { ptr, ptr }
%union.anon = type { %struct.QTailQLink }
%struct.QTailQLink = type { ptr, ptr }
%union.anon.0 = type { %struct.QTailQLink }
%union.anon.1 = type { %struct.QTailQLink }
%struct.QemuLockCnt = type { i32 }
%struct.CPUNegativeOffsetState = type { %struct.CPUTLB, %union.IcountDecr, i8, [11 x i8] }
%struct.CPUTLB = type { %struct.CPUTLBCommon, [16 x %struct.CPUTLBDesc], [16 x %struct.CPUTLBDescFast] }
%struct.CPUTLBCommon = type { %struct.QemuSpin, i16, i64, i64, i64 }
%struct.QemuSpin = type { i32 }
%struct.CPUTLBDesc = type { i64, i64, i64, i64, i64, i64, [8 x %union.CPUTLBEntry], [8 x %struct.CPUTLBEntryFull], ptr }
%union.CPUTLBEntry = type { %struct.anon.2 }
%struct.anon.2 = type { i64, i64, i64, i64 }
%struct.CPUTLBEntryFull = type { i64, i64, %struct.MemTxAttrs, i8, i8, [3 x i8], %union.anon.3 }
%struct.MemTxAttrs = type { i32 }
%union.anon.3 = type { %struct.anon.4 }
%struct.anon.4 = type { i8, i8, i8 }
%struct.CPUTLBDescFast = type { i64, ptr }
%union.IcountDecr = type { i32 }
%struct.RISCVCPUConfig = type { i8, i8, i8, i8, i8, i8, i8, i8, i8, i8, i8, i8, i8, i8, i8, i8, i8, i8, i8, i8, i8, i8, i8, i8, i8, i8, i8, i8, i8, i8, i8, i8, i8, i8, i8, i8, i8, i8, i8, i8, i8, i8, i8, i8, i8, i8, i8, i8, i8, i8, i8, i8, i8, i8, i8, i8, i8, i8, i8, i8, i8, i8, i8, i8, i8, i8, i8, i8, i8, i8, i8, i8, i8, i8, i8, i8, i8, i8, i32, i64, i64, i8, i8, i8, i8, i8, i8, i8, i8, i8, i8, i8, i8, i32, ptr, ptr, ptr, ptr, i16, i16, i16, i16, i8, i8, i8, i8, i8, %struct.RISCVSATPMap }
%struct.RISCVSATPMap = type { i16, i16, i16 }
%struct.CPUWatchpoint = type { i64, i64, i64, %struct.MemTxAttrs, i32, %union.anon.6 }
%union.anon.6 = type { %struct.QTailQLink }
%struct.CPUBreakpoint = type { i64, i32, %union.anon.7 }
%union.anon.7 = type { %struct.QTailQLink }

@.str.22 = private unnamed_addr constant [10 x i8] c"riscv-cpu\00", align 1
@.str.23 = private unnamed_addr constant [31 x i8] c"../qemu/target/riscv/cpu-qom.h\00", align 1
@__func__.RISCV_CPU = private unnamed_addr constant [10 x i8] c"RISCV_CPU\00", align 1

; Function Attrs: nounwind sspstrong uwtable
define internal zeroext i1 @cpu_breakpoint_test(ptr noundef %cpu, i64 noundef %pc, i32 noundef %mask) #0 {
entry:
  %retval = alloca i1, align 1
  %cpu.addr = alloca ptr, align 8
  %pc.addr = alloca i64, align 8
  %mask.addr = alloca i32, align 4
  %bp = alloca ptr, align 8
  store ptr %cpu, ptr %cpu.addr, align 8
  store i64 %pc, ptr %pc.addr, align 8
  store i32 %mask, ptr %mask.addr, align 4
  %0 = load ptr, ptr %cpu.addr, align 8
  %breakpoints = getelementptr inbounds %struct.CPUState, ptr %0, i32 0, i32 36
  %1 = load ptr, ptr %breakpoints, align 8
  %cmp = icmp eq ptr %1, null
  %lnot = xor i1 %cmp, true
  %lnot1 = xor i1 %lnot, true
  %lnot2 = xor i1 %lnot1, true
  %lnot.ext = zext i1 %lnot2 to i32
  %conv = sext i32 %lnot.ext to i64
  %tobool = icmp ne i64 %conv, 0
  br i1 %tobool, label %if.then, label %if.end11

if.then:                                          ; preds = %entry
  %2 = load ptr, ptr %cpu.addr, align 8
  %breakpoints3 = getelementptr inbounds %struct.CPUState, ptr %2, i32 0, i32 36
  %3 = load ptr, ptr %breakpoints3, align 8
  store ptr %3, ptr %bp, align 8
  br label %for.cond

for.cond:                                         ; preds = %for.inc, %if.then
  %4 = load ptr, ptr %bp, align 8
  %tobool4 = icmp ne ptr %4, null
  br i1 %tobool4, label %for.body, label %for.end

for.body:                                         ; preds = %for.cond
  %5 = load ptr, ptr %bp, align 8
  %pc5 = getelementptr inbounds %struct.CPUBreakpoint, ptr %5, i32 0, i32 0
  %6 = load i64, ptr %pc5, align 8
  %7 = load i64, ptr %pc.addr, align 8
  %cmp6 = icmp eq i64 %6, %7
  br i1 %cmp6, label %land.lhs.true, label %if.end

land.lhs.true:                                    ; preds = %for.body
  %8 = load ptr, ptr %bp, align 8
  %flags = getelementptr inbounds %struct.CPUBreakpoint, ptr %8, i32 0, i32 1
  %9 = load i32, ptr %flags, align 8
  %10 = load i32, ptr %mask.addr, align 4
  %and = and i32 %9, %10
  %tobool8 = icmp ne i32 %and, 0
  br i1 %tobool8, label %if.then9, label %if.end

if.then9:                                         ; preds = %land.lhs.true
  store i1 true, ptr %retval, align 1
  br label %return

if.end:                                           ; preds = %land.lhs.true, %for.body
  br label %for.inc

for.inc:                                          ; preds = %if.end
  %11 = load ptr, ptr %bp, align 8
  %entry10 = getelementptr inbounds %struct.CPUBreakpoint, ptr %11, i32 0, i32 2
  %12 = load ptr, ptr %entry10, align 8
  store ptr %12, ptr %bp, align 8
  br label %for.cond, !llvm.loop !9

for.end:                                          ; preds = %for.cond
  br label %if.end11

if.end11:                                         ; preds = %for.end, %entry
  store i1 false, ptr %retval, align 1
  br label %return

return:                                           ; preds = %if.end11, %if.then9
  %13 = load i1, ptr %retval, align 1
  ret i1 %13
}

; Function Attrs: nounwind sspstrong uwtable
define internal ptr @RISCV_CPU(ptr noundef %obj) #0 {
entry:
  %obj.addr = alloca ptr, align 8
  store ptr %obj, ptr %obj.addr, align 8
  %0 = load ptr, ptr %obj.addr, align 8
  %call = call ptr @object_dynamic_cast_assert(ptr noundef %0, ptr noundef @.str.22, ptr noundef @.str.23, i32 noundef 46, ptr noundef @__func__.RISCV_CPU)
  ret ptr %call
}

; Function Attrs: nounwind sspstrong uwtable
define dso_local void @riscv_cpu_debug_excp_handler(ptr noundef %cs) #0 {
entry:
  %cs.addr = alloca ptr, align 8
  %cpu = alloca ptr, align 8
  %env = alloca ptr, align 8
  store ptr %cs, ptr %cs.addr, align 8
  %0 = load ptr, ptr %cs.addr, align 8
  %call = call ptr @RISCV_CPU(ptr noundef %0)
  store ptr %call, ptr %cpu, align 8
  %1 = load ptr, ptr %cpu, align 8
  %env1 = getelementptr inbounds %struct.ArchCPU, ptr %1, i32 0, i32 1
  store ptr %env1, ptr %env, align 8
  %2 = load ptr, ptr %cs.addr, align 8
  %watchpoint_hit = getelementptr inbounds %struct.CPUState, ptr %2, i32 0, i32 38
  %3 = load ptr, ptr %watchpoint_hit, align 8
  %tobool = icmp ne ptr %3, null
  br i1 %tobool, label %if.then, label %if.else

if.then:                                          ; preds = %entry
  %4 = load ptr, ptr %cs.addr, align 8
  %watchpoint_hit2 = getelementptr inbounds %struct.CPUState, ptr %4, i32 0, i32 38
  %5 = load ptr, ptr %watchpoint_hit2, align 8
  %flags = getelementptr inbounds %struct.CPUWatchpoint, ptr %5, i32 0, i32 4
  %6 = load i32, ptr %flags, align 4
  %and = and i32 %6, 32
  %tobool3 = icmp ne i32 %and, 0
  br i1 %tobool3, label %if.then4, label %if.end

if.then4:                                         ; preds = %if.then
  %7 = load ptr, ptr %env, align 8
  call void @do_trigger_action(ptr noundef %7, i64 noundef 0)
  br label %if.end

if.end:                                           ; preds = %if.then4, %if.then
  br label %if.end8

if.else:                                          ; preds = %entry
  %8 = load ptr, ptr %cs.addr, align 8
  %9 = load ptr, ptr %env, align 8
  %pc = getelementptr inbounds %struct.CPUArchState, ptr %9, i32 0, i32 9
  %10 = load i64, ptr %pc, align 16
  %call5 = call zeroext i1 @cpu_breakpoint_test(ptr noundef %8, i64 noundef %10, i32 noundef 32)
  br i1 %call5, label %if.then6, label %if.end7

if.then6:                                         ; preds = %if.else
  %11 = load ptr, ptr %env, align 8
  call void @do_trigger_action(ptr noundef %11, i64 noundef 0)
  br label %if.end7

if.end7:                                          ; preds = %if.then6, %if.else
  br label %if.end8

if.end8:                                          ; preds = %if.end7, %if.end
  ret void
}