; Function Attrs: nounwind sspstrong uwtable
define dso_local void @riscv_cpu_debug_excp_handler(ptr noundef %cs) local_unnamed_addr #0 {
entry:
  %call.i = tail call ptr @object_dynamic_cast_assert(ptr noundef %cs, ptr noundef nonnull @.str.22, ptr noundef nonnull @.str.23, i32 noundef 46, ptr noundef nonnull @__func__.RISCV_CPU) #8
  %env1 = getelementptr inbounds nuw i8, ptr %call.i, i64 10176
  %watchpoint_hit = getelementptr inbounds nuw i8, ptr %cs, i64 616
  %0 = load ptr, ptr %watchpoint_hit, align 8
  %tobool.not = icmp eq ptr %0, null
  br i1 %tobool.not, label %if.else, label %if.then

if.then:                                          ; preds = %entry
  %flags = getelementptr inbounds nuw i8, ptr %0, i64 28
  %1 = load i32, ptr %flags, align 4
  %and = and i32 %1, 32
  %tobool3.not = icmp eq i32 %and, 0
  br i1 %tobool3.not, label %if.end8, label %if.end8.sink.split

if.else:                                          ; preds = %entry
  %pc = getelementptr inbounds nuw i8, ptr %call.i, i64 14832
  %2 = load i64, ptr %pc, align 16
  %3 = getelementptr i8, ptr %cs, i64 584
  %cs.val = load ptr, ptr %3, align 8
  %cmp.not.i = icmp eq ptr %cs.val, null
  br i1 %cmp.not.i, label %if.end8, label %for.body.i

for.body.i:                                       ; preds = %if.else, %for.inc.i
  %bp.01.i = phi ptr [ %6, %for.inc.i ], [ %cs.val, %if.else ]
  %4 = load i64, ptr %bp.01.i, align 8
  %cmp6.i = icmp eq i64 %4, %2
  br i1 %cmp6.i, label %land.lhs.true.i, label %for.inc.i

land.lhs.true.i:                                  ; preds = %for.body.i
  %flags.i = getelementptr inbounds nuw i8, ptr %bp.01.i, i64 8
  %5 = load i32, ptr %flags.i, align 8
  %and.i = and i32 %5, 32
  %tobool8.not.i = icmp eq i32 %and.i, 0
  br i1 %tobool8.not.i, label %for.inc.i, label %if.end8.sink.split

for.inc.i:                                        ; preds = %land.lhs.true.i, %for.body.i
  %entry10.i = getelementptr inbounds nuw i8, ptr %bp.01.i, i64 16
  %6 = load ptr, ptr %entry10.i, align 8
  %tobool4.not.i = icmp eq ptr %6, null
  br i1 %tobool4.not.i, label %if.end8, label %for.body.i, !llvm.loop !9

if.end8.sink.split:                               ; preds = %land.lhs.true.i, %if.then
  tail call fastcc void @do_trigger_action(ptr noundef nonnull %env1, i64 noundef 0)
  br label %if.end8

if.end8:                                          ; preds = %for.inc.i, %if.end8.sink.split, %if.else, %if.then
  ret void
}